; ModuleID = 'source-C-CXX/39/2846.c'
source_filename = "source-C-CXX/39/2846.c"
target datalayout = "e-m:e-p270:32:32-p271:32:32-p272:64:64-i64:64-f80:128-n8:16:32:64-S128"
target triple = "x86_64-pc-linux-gnu"

@pi = dso_local local_unnamed_addr global double 0x400921FB4D12D84A, align 8
@.str = private unnamed_addr constant [16 x i8] c"%lf%lf%lf%lf%lf\00", align 1
@.str.1 = private unnamed_addr constant [14 x i8] c"Invalid input\00", align 1
@.str.2 = private unnamed_addr constant [5 x i8] c"%.4f\00", align 1

; Function Attrs: nofree nounwind sspstrong uwtable
define dso_local i32 @main() local_unnamed_addr #0 {
  %1 = alloca double, align 8
  %2 = alloca double, align 8
  %3 = alloca double, align 8
  %4 = alloca double, align 8
  %5 = alloca double, align 8
  %6 = bitcast double* %1 to i8*
  call void @llvm.lifetime.start.p0i8(i64 8, i8* nonnull %6) #5
  %7 = bitcast double* %2 to i8*
  call void @llvm.lifetime.start.p0i8(i64 8, i8* nonnull %7) #5
  %8 = bitcast double* %3 to i8*
  call void @llvm.lifetime.start.p0i8(i64 8, i8* nonnull %8) #5
  %9 = bitcast double* %4 to i8*
  call void @llvm.lifetime.start.p0i8(i64 8, i8* nonnull %9) #5
  %10 = bitcast double* %5 to i8*
  call void @llvm.lifetime.start.p0i8(i64 8, i8* nonnull %10) #5
  %11 = call i32 (i8*, ...) @__isoc99_scanf(i8* getelementptr inbounds ([16 x i8], [16 x i8]* @.str, i64 0, i64 0), double* nonnull %1, double* nonnull %2, double* nonnull %3, double* nonnull %4, double* nonnull %5)
  %12 = load double, double* %5, align 8, !tbaa !5
  %13 = load double, double* @pi, align 8, !tbaa !5
  %14 = fmul double %12, %13
  %15 = fdiv double %14, 1.800000e+02
  %16 = fmul double %15, 5.000000e-01
  %17 = load double, double* %1, align 8, !tbaa !5
  %18 = load double, double* %2, align 8, !tbaa !5
  %19 = fadd double %17, %18
  %20 = load double, double* %3, align 8, !tbaa !5
  %21 = fadd double %19, %20
  %22 = load double, double* %4, align 8, !tbaa !5
  %23 = fadd double %21, %22
  %24 = fmul double %23, 5.000000e-01
  %25 = fsub double %24, %17
  %26 = fsub double %24, %18
  %27 = fmul double %25, %26
  %28 = fsub double %24, %20
  %29 = fmul double %28, %27
  %30 = fsub double %24, %22
  %31 = fmul double %30, %29
  %32 = fmul double %17, %18
  %33 = fmul double %32, %20
  %34 = fmul double %33, %22
  %35 = call double @cos(double %16) #5
  %36 = fmul double %34, %35
  %37 = call double @cos(double %16) #5
  %38 = fmul double %36, %37
  %39 = fsub double %31, %38
  %40 = fcmp olt double %39, 0.000000e+00
  br i1 %40, label %41, label %43

41:                                               ; preds = %0
  %42 = call i32 (i8*, ...) @printf(i8* nonnull dereferenceable(1) getelementptr inbounds ([14 x i8], [14 x i8]* @.str.1, i64 0, i64 0))
  br label %69

43:                                               ; preds = %0
  %44 = load double, double* %1, align 8, !tbaa !5
  %45 = load double, double* %2, align 8, !tbaa !5
  %46 = load double, double* %3, align 8, !tbaa !5
  %47 = load double, double* %4, align 8, !tbaa !5
  %48 = fadd double %44, %45
  %49 = fadd double %48, %46
  %50 = fadd double %49, %47
  %51 = fmul double %50, 5.000000e-01
  %52 = fsub double %51, %44
  %53 = fsub double %51, %45
  %54 = fmul double %52, %53
  %55 = fsub double %51, %46
  %56 = fmul double %55, %54
  %57 = fsub double %51, %47
  %58 = fmul double %57, %56
  %59 = fmul double %44, %45
  %60 = fmul double %59, %46
  %61 = fmul double %60, %47
  %62 = call double @cos(double %16) #5
  %63 = fmul double %61, %62
  %64 = call double @cos(double %16) #5
  %65 = fmul double %63, %64
  %66 = fsub double %58, %65
  %67 = call double @sqrt(double %66) #5
  %68 = call i32 (i8*, ...) @printf(i8* nonnull dereferenceable(1) getelementptr inbounds ([5 x i8], [5 x i8]* @.str.2, i64 0, i64 0), double %67)
  br label %69

69:                                               ; preds = %43, %41
  call void @llvm.lifetime.end.p0i8(i64 8, i8* nonnull %10) #5
  call void @llvm.lifetime.end.p0i8(i64 8, i8* nonnull %9) #5
  call void @llvm.lifetime.end.p0i8(i64 8, i8* nonnull %8) #5
  call void @llvm.lifetime.end.p0i8(i64 8, i8* nonnull %7) #5
  call void @llvm.lifetime.end.p0i8(i64 8, i8* nonnull %6) #5
  ret i32 0
}

; Function Attrs: argmemonly mustprogress nofree nosync nounwind willreturn
declare void @llvm.lifetime.start.p0i8(i64 immarg, i8* nocapture) #1

; Function Attrs: nofree nounwind
declare noundef i32 @__isoc99_scanf(i8* nocapture noundef readonly, ...) local_unnamed_addr #2

; Function Attrs: mustprogress nofree nounwind willreturn
declare double @cos(double) local_unnamed_addr #3

; Function Attrs: nofree nounwind
declare noundef i32 @printf(i8* nocapture noundef readonly, ...) local_unnamed_addr #2

; Function Attrs: mustprogress nofree nounwind sspstrong uwtable willreturn
define dso_local double @sq(double %0, double %1, double %2, double %3, double %4) local_unnamed_addr #4 {
  %6 = fadd double %0, %1
  %7 = fadd double %6, %2
  %8 = fadd double %7, %3
  %9 = fmul double %8, 5.000000e-01
  %10 = fsub double %9, %0
  %11 = fsub double %9, %1
  %12 = fmul double %10, %11
  %13 = fsub double %9, %2
  %14 = fmul double %13, %12
  %15 = fsub double %9, %3
  %16 = fmul double %15, %14
  %17 = fmul double %0, %1
  %18 = fmul double %17, %2
  %19 = fmul double %18, %3
  %20 = tail call double @cos(double %4) #5
  %21 = fmul double %19, %20
  %22 = tail call double @cos(double %4) #5
  %23 = fmul double %21, %22
  %24 = fsub double %16, %23
  %25 = tail call double @sqrt(double %24) #5
  ret double %25
}

; Function Attrs: argmemonly mustprogress nofree nosync nounwind willreturn
declare void @llvm.lifetime.end.p0i8(i64 immarg, i8* nocapture) #1

; Function Attrs: mustprogress nofree nounwind willreturn
declare double @sqrt(double) local_unnamed_addr #3


!llvm.module.flags = !{!0, !1, !2, !3}
!llvm.ident = !{!4}

!0 = !{i32 1, !"wchar_size", i32 4}
!1 = !{i32 7, !"PIC Level", i32 2}
!2 = !{i32 7, !"PIE Level", i32 2}
!3 = !{i32 7, !"uwtable", i32 1}
!4 = !{!"clang version 13.0.0"}
!5 = !{!6, !6, i64 0}
!6 = !{!"double", !7, i64 0}
!7 = !{!"omnipotent char", !8, i64 0}
!8 = !{!"Simple C/C++ TBAA"}
